(lp0
S'poi'
p1
aS'salary'
p2
aS'deferral_payments'
p3
aS'bonus'
p4
aS'restricted_stock_deferred'
p5
aS'deferred_income'
p6
aS'total_stock_value'
p7
aS'expenses'
p8
aS'exercised_stock_options'
p9
aS'other'
p10
aS'long_term_incentive'
p11
aS'proportion_from_this_to_poi'
p12
a.